; Function Attrs: mustprogress uwtable
define noundef i32 @_ZN3gmx36processExceptionAtExitForCommandLineERKSt9exception(ptr noundef nonnull align 8 dereferenceable(8) %0) local_unnamed_addr #7 {
  %2 = tail call noundef i32 @_ZN3gmx22processExceptionAtExitERKSt9exception(ptr noundef nonnull align 8 dereferenceable(8) %0)
  tail call void @_ZN3gmx8finalizeEv()
  tail call void @_ZN3gmx20setLibraryFileFinderEPKNS_14DataFileFinderE(ptr noundef null)
  %3 = load ptr, ptr @_ZN3gmx12_GLOBAL__N_115g_libFileFinderE, align 8, !tbaa !11
  store ptr null, ptr @_ZN3gmx12_GLOBAL__N_115g_libFileFinderE, align 8, !tbaa !11
  %.not.i.i.i = icmp eq ptr %3, null
  br i1 %.not.i.i.i, label %_ZNSt10unique_ptrIN3gmx14DataFileFinderESt14default_deleteIS1_EE5resetEPS1_.exit.i, label %_ZNKSt14default_deleteIN3gmx14DataFileFinderEEclEPS1_.exit.i.i.i

_ZNKSt14default_deleteIN3gmx14DataFileFinderEEclEPS1_.exit.i.i.i: ; preds = %1
  tail call void @_ZN3gmx14DataFileFinderD1Ev(ptr noundef nonnull align 8 dereferenceable(8) %3) #17
  tail call void @_ZdlPvm(ptr noundef nonnull %3, i64 noundef 8) #19
  br label %_ZNSt10unique_ptrIN3gmx14DataFileFinderESt14default_deleteIS1_EE5resetEPS1_.exit.i

_ZNSt10unique_ptrIN3gmx14DataFileFinderESt14default_deleteIS1_EE5resetEPS1_.exit.i: ; preds = %_ZNKSt14default_deleteIN3gmx14DataFileFinderEEclEPS1_.exit.i.i.i, %1
  tail call void @_ZN3gmx17setProgramContextEPKNS_15IProgramContextE(ptr noundef null)
  %4 = load ptr, ptr @_ZN3gmx12_GLOBAL__N_120g_commandLineContextE, align 8, !tbaa !4
  store ptr null, ptr @_ZN3gmx12_GLOBAL__N_120g_commandLineContextE, align 8, !tbaa !4
  %.not.i.i1.i = icmp eq ptr %4, null
  br i1 %.not.i.i1.i, label %_ZN3gmx22finalizeForCommandLineEv.exit, label %_ZNKSt14default_deleteIN3gmx25CommandLineProgramContextEEclEPS1_.exit.i.i.i

_ZNKSt14default_deleteIN3gmx25CommandLineProgramContextEEclEPS1_.exit.i.i.i: ; preds = %_ZNSt10unique_ptrIN3gmx14DataFileFinderESt14default_deleteIS1_EE5resetEPS1_.exit.i
  %5 = load ptr, ptr %4, align 8, !tbaa !9
  %6 = getelementptr inbounds nuw i8, ptr %5, i64 48
  %7 = load ptr, ptr %6, align 8
  tail call void %7(ptr noundef nonnull align 8 dereferenceable(16) %4) #17
  br label %_ZN3gmx22finalizeForCommandLineEv.exit

_ZN3gmx22finalizeForCommandLineEv.exit:           ; preds = %_ZNSt10unique_ptrIN3gmx14DataFileFinderESt14default_deleteIS1_EE5resetEPS1_.exit.i, %_ZNKSt14default_deleteIN3gmx25CommandLineProgramContextEEclEPS1_.exit.i.i.i
  ret i32 %2
}